; Function Attrs: mustprogress uwtable
define internal fastcc noundef nonnull align 8 dereferenceable(32) ptr @_ZN12_GLOBAL__N_14Args8PopFrontB5cxx11ESt17basic_string_viewIcSt11char_traitsIcEE(ptr nocapture noundef nonnull align 8 dereferenceable(16) %0, i64 %1, ptr %2) unnamed_addr #3 align 2 personality ptr @__gxx_personality_v0 {
  %4 = alloca %"class.std::basic_string_view", align 8
  %5 = alloca %"class.std::__cxx11::basic_string", align 8
  %6 = alloca %"class.std::allocator.0", align 1
  store i64 %1, ptr %4, align 8
  %7 = getelementptr inbounds i8, ptr %4, i64 8
  store ptr %2, ptr %7, align 8
  %8 = getelementptr inbounds i8, ptr %0, i64 8
  %9 = load ptr, ptr %0, align 8
  %10 = load ptr, ptr %8, align 8
  %11 = icmp eq ptr %9, %10
  br i1 %11, label %12, label %20

12:                                               ; preds = %3
  %13 = tail call ptr @__cxa_allocate_exception(i64 40) #20
  call void @_ZNSaIcEC1Ev(ptr noundef nonnull align 1 dereferenceable(1) %6) #20
  invoke void @_ZNSt7__cxx1112basic_stringIcSt11char_traitsIcESaIcEEC2ISt17basic_string_viewIcS2_EvEERKT_RKS3_(ptr noundef nonnull align 8 dereferenceable(32) %5, ptr noundef nonnull align 8 dereferenceable(16) %4, ptr noundef nonnull align 1 dereferenceable(1) %6)
          to label %14 unwind label %.thread

14:                                               ; preds = %12
  invoke void @_ZNSt13runtime_errorC2ERKNSt7__cxx1112basic_stringIcSt11char_traitsIcESaIcEEE(ptr noundef nonnull align 8 dereferenceable(16) %13, ptr noundef nonnull align 8 dereferenceable(32) %5)
          to label %15 unwind label %17

15:                                               ; preds = %14
  store ptr getelementptr inbounds ({ [5 x ptr] }, ptr @_ZTVN12_GLOBAL__N_110json_errorE, i64 0, i32 0, i64 2), ptr %13, align 8
  %.sroa.4.0..sroa_idx = getelementptr inbounds i8, ptr %13, i64 32
  store i8 0, ptr %.sroa.4.0..sroa_idx, align 8
  invoke void @__cxa_throw(ptr nonnull %13, ptr nonnull @_ZTIN12_GLOBAL__N_110json_errorE, ptr nonnull @_ZN12_GLOBAL__N_110json_errorD2Ev) #21
          to label %23 unwind label %17

.thread:                                          ; preds = %12
  %16 = landingpad { ptr, i32 }
          cleanup
  call void @_ZNSaIcED1Ev(ptr noundef nonnull align 1 dereferenceable(1) %6) #20
  br label %19

17:                                               ; preds = %15, %14
  %.04 = phi i1 [ false, %15 ], [ true, %14 ]
  %18 = landingpad { ptr, i32 }
          cleanup
  call void @_ZNSt7__cxx1112basic_stringIcSt11char_traitsIcESaIcEED1Ev(ptr noundef nonnull align 8 dereferenceable(32) %5) #20
  call void @_ZNSaIcED1Ev(ptr noundef nonnull align 1 dereferenceable(1) %6) #20
  br i1 %.04, label %19, label %22

19:                                               ; preds = %.thread, %17
  %.pn12 = phi { ptr, i32 } [ %16, %.thread ], [ %18, %17 ]
  call void @__cxa_free_exception(ptr %13) #20
  br label %22

20:                                               ; preds = %3
  %21 = getelementptr inbounds i8, ptr %9, i64 32
  store ptr %21, ptr %0, align 8
  ret ptr %9

22:                                               ; preds = %17, %19
  %.pn11 = phi { ptr, i32 } [ %18, %17 ], [ %.pn12, %19 ]
  resume { ptr, i32 } %.pn11

23:                                               ; preds = %15
  unreachable
}